target datalayout = "e-m:e-p270:32:32-p271:32:32-p272:64:64-i64:64-i128:128-f80:128-n8:16:32:64-S128"
target triple = "x86_64-pc-linux-gnu"

%"class.icu_77::UVector32" = type { %"class.icu_77::UObject", i32, i32, i32, ptr }
%"class.icu_77::UObject" = type { ptr }
%"class.icu_77::RuleBasedBreakIterator::BreakCache" = type { ptr, ptr, i32, i32, i32, i32, [128 x i32], [128 x i16], %"class.icu_77::UVector32" }

@_ZTVN6icu_7722RuleBasedBreakIterator10BreakCacheE = unnamed_addr constant { [4 x ptr] } { [4 x ptr] [ptr null, ptr @_ZTIN6icu_7722RuleBasedBreakIterator10BreakCacheE, ptr @_ZN6icu_7722RuleBasedBreakIterator10BreakCacheD1Ev, ptr @_ZN6icu_7722RuleBasedBreakIterator10BreakCacheD0Ev] }, align 8

; Function Attrs: mustprogress nounwind uwtable
define void @_ZN6icu_7722RuleBasedBreakIterator10BreakCache5resetEii(ptr noundef nonnull align 8 dereferenceable(832) %0, i32 noundef %1, i32 noundef %2) #2 align 2 {
  %4 = alloca ptr, align 8
  %5 = alloca i32, align 4
  %6 = alloca i32, align 4
  store ptr %0, ptr %4, align 8, !tbaa !81
  store i32 %1, ptr %5, align 4, !tbaa !22
  store i32 %2, ptr %6, align 4, !tbaa !22
  %7 = load ptr, ptr %4, align 8
  %8 = getelementptr inbounds nuw %"class.icu_77::RuleBasedBreakIterator::BreakCache", ptr %7, i32 0, i32 2
  store i32 0, ptr %8, align 8, !tbaa !84
  %9 = getelementptr inbounds nuw %"class.icu_77::RuleBasedBreakIterator::BreakCache", ptr %7, i32 0, i32 3
  store i32 0, ptr %9, align 4, !tbaa !85
  %10 = load i32, ptr %5, align 4, !tbaa !22
  %11 = getelementptr inbounds nuw %"class.icu_77::RuleBasedBreakIterator::BreakCache", ptr %7, i32 0, i32 4
  store i32 %10, ptr %11, align 8, !tbaa !86
  %12 = getelementptr inbounds nuw %"class.icu_77::RuleBasedBreakIterator::BreakCache", ptr %7, i32 0, i32 5
  store i32 0, ptr %12, align 4, !tbaa !87
  %13 = load i32, ptr %5, align 4, !tbaa !22
  %14 = getelementptr inbounds nuw %"class.icu_77::RuleBasedBreakIterator::BreakCache", ptr %7, i32 0, i32 6
  %15 = getelementptr inbounds [128 x i32], ptr %14, i64 0, i64 0
  store i32 %13, ptr %15, align 8, !tbaa !22
  %16 = load i32, ptr %6, align 4, !tbaa !22
  %17 = trunc i32 %16 to i16
  %18 = getelementptr inbounds nuw %"class.icu_77::RuleBasedBreakIterator::BreakCache", ptr %7, i32 0, i32 7
  %19 = getelementptr inbounds [128 x i16], ptr %18, i64 0, i64 0
  store i16 %17, ptr %19, align 8, !tbaa !63
  ret void
}

; Function Attrs: mustprogress uwtable
define void @_ZN6icu_7722RuleBasedBreakIterator10BreakCacheC2EPS0_R10UErrorCode(ptr noundef nonnull align 8 dereferenceable(832) %0, ptr noundef %1, ptr noundef nonnull align 4 dereferenceable(4) %2) unnamed_addr #0 align 2 personality ptr @__gxx_personality_v0 {
  %4 = alloca ptr, align 8
  %5 = alloca ptr, align 8
  %6 = alloca ptr, align 8
  %7 = alloca ptr, align 8
  %8 = alloca i32, align 4
  store ptr %0, ptr %4, align 8, !tbaa !81
  store ptr %1, ptr %5, align 8, !tbaa !8
  store ptr %2, ptr %6, align 8, !tbaa !10
  %9 = load ptr, ptr %4, align 8
  store ptr getelementptr inbounds inrange(-16, 16) ({ [4 x ptr] }, ptr @_ZTVN6icu_7722RuleBasedBreakIterator10BreakCacheE, i32 0, i32 0, i32 2), ptr %9, align 8, !tbaa !78
  %10 = getelementptr inbounds nuw %"class.icu_77::RuleBasedBreakIterator::BreakCache", ptr %9, i32 0, i32 1
  %11 = load ptr, ptr %5, align 8, !tbaa !8
  store ptr %11, ptr %10, align 8, !tbaa !82
  %12 = getelementptr inbounds nuw %"class.icu_77::RuleBasedBreakIterator::BreakCache", ptr %9, i32 0, i32 8
  %13 = load ptr, ptr %6, align 8, !tbaa !10
  call void @_ZN6icu_779UVector32C1ER10UErrorCode(ptr noundef nonnull align 8 dereferenceable(32) %12, ptr noundef nonnull align 4 dereferenceable(4) %13)
  invoke void @_ZN6icu_7722RuleBasedBreakIterator10BreakCache5resetEii(ptr noundef nonnull align 8 dereferenceable(832) %9, i32 noundef 0, i32 noundef 0)
          to label %14 unwind label %15

14:                                               ; preds = %3
  ret void

15:                                               ; preds = %3
  %16 = landingpad { ptr, i32 }
          cleanup
  %17 = extractvalue { ptr, i32 } %16, 0
  store ptr %17, ptr %7, align 8
  %18 = extractvalue { ptr, i32 } %16, 1
  store i32 %18, ptr %8, align 4
  call void @_ZN6icu_779UVector32D1Ev(ptr noundef nonnull align 8 dereferenceable(32) %12) #8
  br label %19

19:                                               ; preds = %15
  %20 = load ptr, ptr %7, align 8
  %21 = load i32, ptr %8, align 4
  %22 = insertvalue { ptr, i32 } poison, ptr %20, 0
  %23 = insertvalue { ptr, i32 } %22, i32 %21, 1
  resume { ptr, i32 } %23
}