; Function Attrs: mustprogress uwtable
define void @_ZN6icu_7722RuleBasedBreakIterator10BreakCacheC2EPS0_R10UErrorCode(ptr noundef nonnull align 8 dereferenceable(832) initializes((0, 16)) %0, ptr noundef %1, ptr noundef nonnull align 4 dereferenceable(4) %2) unnamed_addr #0 align 2 personality ptr @__gxx_personality_v0 {
  store ptr getelementptr inbounds nuw inrange(-16, 16) (i8, ptr @_ZTVN6icu_7722RuleBasedBreakIterator10BreakCacheE, i64 16), ptr %0, align 8, !tbaa !66
  %4 = getelementptr inbounds nuw i8, ptr %0, i64 8
  store ptr %1, ptr %4, align 8, !tbaa !69
  %5 = getelementptr inbounds nuw i8, ptr %0, i64 800
  tail call void @_ZN6icu_779UVector32C1ER10UErrorCode(ptr noundef nonnull align 8 dereferenceable(32) %5, ptr noundef nonnull align 4 dereferenceable(4) %2)
  %6 = getelementptr inbounds nuw i8, ptr %0, i64 16
  %7 = getelementptr inbounds nuw i8, ptr %0, i64 544
  store i16 0, ptr %7, align 8, !tbaa !71
  tail call void @llvm.memset.p0.i64(ptr noundef nonnull align 8 dereferenceable(20) %6, i8 0, i64 20, i1 false)
  ret void
}